; Function Attrs: mustprogress nofree norecurse nosync nounwind willreturn memory(readwrite, argmem: none, inaccessiblemem: none) uwtable
define void @b2World_SetRestitutionThreshold(i32 %0, float noundef %1) local_unnamed_addr #12 {
  %3 = and i32 %0, 65535
  %4 = zext nneg i32 %3 to i64
  %5 = getelementptr %struct.b2World, ptr @b2_worlds, i64 %4
  %6 = getelementptr i8, ptr %5, i64 -9
  %7 = load i8, ptr %6, align 1, !tbaa !35, !range !77, !noundef !78
  %8 = trunc nuw i8 %7 to i1
  br i1 %8, label %15, label %9

9:                                                ; preds = %2
  %10 = fcmp olt float %1, 0.000000e+00
  %11 = fcmp ogt float %1, 0x47EFFFFFE0000000
  %12 = select i1 %11, float 0x47EFFFFFE0000000, float %1
  %13 = select i1 %10, float 0.000000e+00, float %12
  %14 = getelementptr i8, ptr %5, i64 -248
  store float %13, ptr %14, align 8, !tbaa !116
  br label %15

15:                                               ; preds = %2, %9
  ret void
}